; Function Attrs: mustprogress uwtable
define internal fastcc void @_ZN5Yosys5RTLILL11unescape_idERKNSt7__cxx1112basic_stringIcSt11char_traitsIcESaIcEEE(ptr dead_on_unwind noalias writable align 8 %0, ptr noundef nonnull align 8 dereferenceable(32) %1) unnamed_addr #4 {
  %3 = tail call noundef i64 @_ZNKSt7__cxx1112basic_stringIcSt11char_traitsIcESaIcEE4sizeEv(ptr noundef nonnull align 8 dereferenceable(32) %1) #31
  %4 = icmp ult i64 %3, 2
  br i1 %4, label %5, label %6

5:                                                ; preds = %2
  tail call void @_ZNSt7__cxx1112basic_stringIcSt11char_traitsIcESaIcEEC1ERKS4_(ptr noundef nonnull align 8 dereferenceable(32) %0, ptr noundef nonnull align 8 dereferenceable(32) %1)
  br label %29

6:                                                ; preds = %2
  %7 = tail call noundef nonnull align 1 dereferenceable(1) ptr @_ZNKSt7__cxx1112basic_stringIcSt11char_traitsIcESaIcEEixEm(ptr noundef nonnull align 8 dereferenceable(32) %1, i64 noundef 0) #31
  %8 = load i8, ptr %7, align 1
  %.not = icmp eq i8 %8, 92
  br i1 %.not, label %10, label %9

9:                                                ; preds = %6
  tail call void @_ZNSt7__cxx1112basic_stringIcSt11char_traitsIcESaIcEEC1ERKS4_(ptr noundef nonnull align 8 dereferenceable(32) %0, ptr noundef nonnull align 8 dereferenceable(32) %1)
  br label %29

10:                                               ; preds = %6
  %11 = tail call noundef nonnull align 1 dereferenceable(1) ptr @_ZNKSt7__cxx1112basic_stringIcSt11char_traitsIcESaIcEEixEm(ptr noundef nonnull align 8 dereferenceable(32) %1, i64 noundef 1) #31
  %12 = load i8, ptr %11, align 1
  %13 = icmp eq i8 %12, 36
  br i1 %13, label %18, label %14

14:                                               ; preds = %10
  %15 = tail call noundef nonnull align 1 dereferenceable(1) ptr @_ZNKSt7__cxx1112basic_stringIcSt11char_traitsIcESaIcEEixEm(ptr noundef nonnull align 8 dereferenceable(32) %1, i64 noundef 1) #31
  %16 = load i8, ptr %15, align 1
  %17 = icmp eq i8 %16, 92
  br i1 %17, label %18, label %19

18:                                               ; preds = %14, %10
  tail call void @_ZNSt7__cxx1112basic_stringIcSt11char_traitsIcESaIcEEC1ERKS4_(ptr noundef nonnull align 8 dereferenceable(32) %0, ptr noundef nonnull align 8 dereferenceable(32) %1)
  br label %29

19:                                               ; preds = %14
  %20 = tail call noundef nonnull align 1 dereferenceable(1) ptr @_ZNKSt7__cxx1112basic_stringIcSt11char_traitsIcESaIcEEixEm(ptr noundef nonnull align 8 dereferenceable(32) %1, i64 noundef 1) #31
  %21 = load i8, ptr %20, align 1
  %22 = icmp sgt i8 %21, 47
  br i1 %22, label %23, label %28

23:                                               ; preds = %19
  %24 = tail call noundef nonnull align 1 dereferenceable(1) ptr @_ZNKSt7__cxx1112basic_stringIcSt11char_traitsIcESaIcEEixEm(ptr noundef nonnull align 8 dereferenceable(32) %1, i64 noundef 1) #31
  %25 = load i8, ptr %24, align 1
  %26 = icmp slt i8 %25, 58
  br i1 %26, label %27, label %28

27:                                               ; preds = %23
  tail call void @_ZNSt7__cxx1112basic_stringIcSt11char_traitsIcESaIcEEC1ERKS4_(ptr noundef nonnull align 8 dereferenceable(32) %0, ptr noundef nonnull align 8 dereferenceable(32) %1)
  br label %29

28:                                               ; preds = %23, %19
  tail call void @_ZNKSt7__cxx1112basic_stringIcSt11char_traitsIcESaIcEE6substrEmm(ptr dead_on_unwind writable sret(%"class.std::__cxx11::basic_string") align 8 %0, ptr noundef nonnull align 8 dereferenceable(32) %1, i64 noundef 1, i64 noundef -1)
  br label %29

29:                                               ; preds = %28, %27, %18, %9, %5
  ret void
}